; Function Attrs: nounwind uwtable
define ptr @l_Lean_IR_NormalizeIds_withJP___rarg(ptr noundef %0, ptr noundef %1, ptr noundef %2, ptr noundef %3) #0 {
  %5 = ptrtoint ptr %3 to i64
  %6 = and i64 %5, 1
  %.not = icmp eq i64 %6, 0
  br i1 %.not, label %17, label %7, !prof !4

7:                                                ; preds = %4
  %8 = lshr i64 %5, 1
  %9 = add nuw i64 %8, 1
  %10 = icmp sgt i64 %9, -1
  br i1 %10, label %11, label %15, !prof !12

11:                                               ; preds = %7
  %12 = shl nuw i64 %9, 1
  %13 = or disjoint i64 %12, 1
  %14 = inttoptr i64 %13 to ptr
  br label %lean_inc.exit

15:                                               ; preds = %7
  %16 = tail call ptr @lean_big_usize_to_nat(i64 noundef range(i64 0, -1) %9) #4
  br label %lean_inc.exit

17:                                               ; preds = %4
  %18 = tail call ptr @lean_nat_big_add(ptr noundef %3, ptr noundef nonnull inttoptr (i64 3 to ptr)) #4
  %.val.i = load i32, ptr %3, align 4, !tbaa !9
  %19 = icmp sgt i32 %.val.i, 0
  br i1 %19, label %20, label %22, !prof !12

20:                                               ; preds = %17
  %21 = add nuw i32 %.val.i, 1
  store i32 %21, ptr %3, align 4, !tbaa !9
  br label %lean_inc.exit

22:                                               ; preds = %17
  %.not.i = icmp eq i32 %.val.i, 0
  br i1 %.not.i, label %lean_inc.exit, label %23

23:                                               ; preds = %22
  tail call void @lean_inc_ref_cold(ptr noundef nonnull %3) #4
  br label %lean_inc.exit

lean_inc.exit:                                    ; preds = %11, %15, %23, %22, %20
  %.0.i13 = phi ptr [ %18, %20 ], [ %18, %22 ], [ %18, %23 ], [ %16, %15 ], [ %14, %11 ]
  %24 = tail call ptr @l_Lean_RBNode_insert___at_Lean_IR_addVarRename___spec__1(ptr noundef %2, ptr noundef %0, ptr noundef %3) #4
  %25 = tail call ptr @lean_apply_3(ptr noundef %1, ptr noundef %3, ptr noundef %24, ptr noundef %.0.i13) #4
  ret ptr %25
}